target datalayout = "e-m:e-p270:32:32-p271:32:32-p272:64:64-i64:64-i128:128-f80:128-n8:16:32:64-S128"
target triple = "x86_64-pc-linux-gnu"

; Function Attrs: nounwind uwtable
define dso_local double @hllTau(double noundef %0) #0 {
  %2 = alloca double, align 8
  %3 = alloca double, align 8
  %4 = alloca double, align 8
  %5 = alloca double, align 8
  %6 = alloca double, align 8
  store double %0, ptr %3, align 8, !tbaa !72
  %7 = load double, ptr %3, align 8, !tbaa !72
  %8 = fcmp oeq double %7, 0.000000e+00
  br i1 %8, label %12, label %9

9:                                                ; preds = %1
  %10 = load double, ptr %3, align 8, !tbaa !72
  %11 = fcmp oeq double %10, 1.000000e+00
  br i1 %11, label %12, label %13

12:                                               ; preds = %9, %1
  store double 0.000000e+00, ptr %2, align 8
  br label %36

13:                                               ; preds = %9
  call void @llvm.lifetime.start.p0(i64 8, ptr %4) #15
  call void @llvm.lifetime.start.p0(i64 8, ptr %5) #15
  store double 1.000000e+00, ptr %5, align 8, !tbaa !72
  call void @llvm.lifetime.start.p0(i64 8, ptr %6) #15
  %14 = load double, ptr %3, align 8, !tbaa !72
  %15 = fsub double 1.000000e+00, %14
  store double %15, ptr %6, align 8, !tbaa !72
  br label %16

16:                                               ; preds = %29, %13
  %17 = load double, ptr %3, align 8, !tbaa !72
  %18 = call double @sqrt(double noundef %17) #15, !tbaa !9
  store double %18, ptr %3, align 8, !tbaa !72
  %19 = load double, ptr %6, align 8, !tbaa !72
  store double %19, ptr %4, align 8, !tbaa !72
  %20 = load double, ptr %5, align 8, !tbaa !72
  %21 = fmul double %20, 5.000000e-01
  store double %21, ptr %5, align 8, !tbaa !72
  %22 = load double, ptr %3, align 8, !tbaa !72
  %23 = fsub double 1.000000e+00, %22
  %24 = call double @pow(double noundef %23, double noundef 2.000000e+00) #15, !tbaa !9
  %25 = load double, ptr %5, align 8, !tbaa !72
  %26 = load double, ptr %6, align 8, !tbaa !72
  %27 = fneg double %24
  %28 = call double @llvm.fmuladd.f64(double %27, double %25, double %26)
  store double %28, ptr %6, align 8, !tbaa !72
  br label %29

29:                                               ; preds = %16
  %30 = load double, ptr %4, align 8, !tbaa !72
  %31 = load double, ptr %6, align 8, !tbaa !72
  %32 = fcmp une double %30, %31
  br i1 %32, label %16, label %33, !llvm.loop !74

33:                                               ; preds = %29
  %34 = load double, ptr %6, align 8, !tbaa !72
  %35 = fdiv double %34, 3.000000e+00
  store double %35, ptr %2, align 8
  call void @llvm.lifetime.end.p0(i64 8, ptr %6) #15
  call void @llvm.lifetime.end.p0(i64 8, ptr %5) #15
  call void @llvm.lifetime.end.p0(i64 8, ptr %4) #15
  br label %36

36:                                               ; preds = %33, %12
  %37 = load double, ptr %2, align 8
  ret double %37
}