; Function Attrs: nofree nounwind memory(write) uwtable
define dso_local double @hllTau(double noundef %0) local_unnamed_addr #11 {
  %2 = fcmp oeq double %0, 0.000000e+00
  %3 = fcmp oeq double %0, 1.000000e+00
  %or.cond = or i1 %2, %3
  br i1 %or.cond, label %16, label %4

4:                                                ; preds = %1
  %5 = fsub double 1.000000e+00, %0
  br label %6

6:                                                ; preds = %6, %4
  %.016 = phi double [ %0, %4 ], [ %7, %6 ]
  %.014 = phi double [ 1.000000e+00, %4 ], [ %8, %6 ]
  %.0 = phi double [ %5, %4 ], [ %12, %6 ]
  %7 = tail call double @sqrt(double noundef %.016) #20, !tbaa !12
  %8 = fmul double %.014, 5.000000e-01
  %9 = fsub double 1.000000e+00, %7
  %10 = fneg double %9
  %11 = fmul double %9, %10
  %12 = tail call double @llvm.fmuladd.f64(double %11, double %8, double %.0)
  %13 = fcmp une double %.0, %12
  br i1 %13, label %6, label %14, !llvm.loop !55

14:                                               ; preds = %6
  %15 = fdiv double %12, 3.000000e+00
  br label %16

16:                                               ; preds = %1, %14
  %.015 = phi double [ %15, %14 ], [ 0.000000e+00, %1 ]
  ret double %.015
}